target datalayout = "e-m:e-p270:32:32-p271:32:32-p272:64:64-i64:64-i128:128-f80:128-n8:16:32:64-S128"
target triple = "x86_64-pc-linux-gnu"

@.str = private unnamed_addr constant [41 x i8] c"../openssl/test/evp_pkey_provided_test.c\00", align 1
@.str.50 = private unnamed_addr constant [1 x i8] zeroinitializer, align 1
@.str.66 = private unnamed_addr constant [2 x i8] c"0\00", align 1
@.str.78 = private unnamed_addr constant [7 x i8] c"membio\00", align 1
@.str.79 = private unnamed_addr constant [97 x i8] c"PEM_write_bio_PrivateKey(bio_out, pk, EVP_aes_256_cbc(), (unsigned char *)\22pass\22, 4, NULL, NULL)\00", align 1
@bio_out = external global ptr, align 8
@.str.80 = private unnamed_addr constant [5 x i8] c"pass\00", align 1
@.str.81 = private unnamed_addr constant [95 x i8] c"PEM_write_bio_PKCS8PrivateKey(bio_out, pk, EVP_aes_256_cbc(), (const char *)~0, 0, NULL, NULL)\00", align 1
@.str.82 = private unnamed_addr constant [81 x i8] c"PEM_write_bio_PKCS8PrivateKey(bio_out, pk, EVP_aes_256_cbc(), NULL, 0, NULL, \22\22)\00", align 1
@.str.83 = private unnamed_addr constant [86 x i8] c"PEM_write_bio_PKCS8PrivateKey(bio_out, pk, EVP_aes_256_cbc(), NULL, 0, pass_cb, NULL)\00", align 1
@.str.84 = private unnamed_addr constant [92 x i8] c"PEM_write_bio_PKCS8PrivateKey(bio_out, pk, EVP_aes_256_cbc(), NULL, 0, pass_cb_error, NULL)\00", align 1
@.str.85 = private unnamed_addr constant [121 x i8] c"PEM_write_bio_PKCS8PrivateKey_nid( bio_out, pk, NID_pbe_WithSHA1And3_Key_TripleDES_CBC, (const char *)~0, 0, NULL, NULL)\00", align 1
@.str.86 = private unnamed_addr constant [107 x i8] c"PEM_write_bio_PKCS8PrivateKey_nid( bio_out, pk, NID_pbe_WithSHA1And3_Key_TripleDES_CBC, NULL, 0, NULL, \22\22)\00", align 1
@.str.87 = private unnamed_addr constant [112 x i8] c"PEM_write_bio_PKCS8PrivateKey_nid( bio_out, pk, NID_pbe_WithSHA1And3_Key_TripleDES_CBC, NULL, 0, pass_cb, NULL)\00", align 1
@.str.88 = private unnamed_addr constant [118 x i8] c"PEM_write_bio_PKCS8PrivateKey_nid( bio_out, pk, NID_pbe_WithSHA1And3_Key_TripleDES_CBC, NULL, 0, pass_cb_error, NULL)\00", align 1
@.str.89 = private unnamed_addr constant [44 x i8] c"EVP_PKEY_print_private(membio, pk, 0, NULL)\00", align 1
@.str.90 = private unnamed_addr constant [42 x i8] c"compare_with_file(alg, PRIV_TEXT, membio)\00", align 1
@.str.91 = private unnamed_addr constant [33 x i8] c"PEM_write_bio_PUBKEY(membio, pk)\00", align 1
@.str.92 = private unnamed_addr constant [40 x i8] c"compare_with_file(alg, PUB_PEM, membio)\00", align 1
@.str.93 = private unnamed_addr constant [64 x i8] c"PEM_write_bio_PrivateKey(membio, pk, NULL, NULL, 0, NULL, NULL)\00", align 1
@.str.94 = private unnamed_addr constant [41 x i8] c"compare_with_file(alg, PRIV_PEM, membio)\00", align 1
@.str.95 = private unnamed_addr constant [66 x i8] c"PEM_write_bio_PrivateKey(membio, NULL, NULL, NULL, 0, NULL, NULL)\00", align 1
@.str.96 = private unnamed_addr constant [78 x i8] c"PEM_write_bio_PrivateKey_traditional(membio, NULL, NULL, NULL, 0, NULL, NULL)\00", align 1

; Function Attrs: nounwind uwtable
define internal i32 @test_print_key_using_pem(ptr noundef %0, ptr noundef %1) #0 {
  %3 = alloca ptr, align 8
  %4 = alloca ptr, align 8
  %5 = alloca ptr, align 8
  %6 = alloca i32, align 4
  store ptr %0, ptr %3, align 8, !tbaa !4
  store ptr %1, ptr %4, align 8, !tbaa !17
  call void @llvm.lifetime.start.p0(i64 8, ptr %5) #6
  %7 = call ptr @BIO_s_mem()
  %8 = call ptr @BIO_new(ptr noundef %7)
  store ptr %8, ptr %5, align 8, !tbaa !37
  call void @llvm.lifetime.start.p0(i64 4, ptr %6) #6
  store i32 0, ptr %6, align 4, !tbaa !9
  %9 = load ptr, ptr %5, align 8, !tbaa !37
  %10 = call i32 @test_ptr(ptr noundef @.str, i32 noundef 146, ptr noundef @.str.78, ptr noundef %9)
  %11 = icmp ne i32 %10, 0
  br i1 %11, label %13, label %12

12:                                               ; preds = %2
  br label %152

13:                                               ; preds = %2
  %14 = load ptr, ptr @bio_out, align 8, !tbaa !37
  %15 = load ptr, ptr %4, align 8, !tbaa !17
  %16 = call ptr @EVP_aes_256_cbc()
  %17 = call i32 @PEM_write_bio_PrivateKey(ptr noundef %14, ptr noundef %15, ptr noundef %16, ptr noundef @.str.80, i32 noundef 4, ptr noundef null, ptr noundef null)
  %18 = icmp ne i32 %17, 0
  %19 = zext i1 %18 to i32
  %20 = call i32 @test_true(ptr noundef @.str, i32 noundef 152, ptr noundef @.str.79, i32 noundef %19)
  %21 = icmp ne i32 %20, 0
  br i1 %21, label %22, label %150

22:                                               ; preds = %13
  %23 = load ptr, ptr @bio_out, align 8, !tbaa !37
  %24 = load ptr, ptr %4, align 8, !tbaa !17
  %25 = call ptr @EVP_aes_256_cbc()
  %26 = call i32 @PEM_write_bio_PKCS8PrivateKey(ptr noundef %23, ptr noundef %24, ptr noundef %25, ptr noundef inttoptr (i64 -1 to ptr), i32 noundef 0, ptr noundef null, ptr noundef null)
  %27 = icmp ne i32 %26, 0
  %28 = zext i1 %27 to i32
  %29 = call i32 @test_true(ptr noundef @.str, i32 noundef 157, ptr noundef @.str.81, i32 noundef %28)
  %30 = icmp ne i32 %29, 0
  br i1 %30, label %31, label %150

31:                                               ; preds = %22
  %32 = load ptr, ptr @bio_out, align 8, !tbaa !37
  %33 = load ptr, ptr %4, align 8, !tbaa !17
  %34 = call ptr @EVP_aes_256_cbc()
  %35 = call i32 @PEM_write_bio_PKCS8PrivateKey(ptr noundef %32, ptr noundef %33, ptr noundef %34, ptr noundef null, i32 noundef 0, ptr noundef null, ptr noundef @.str.50)
  %36 = icmp ne i32 %35, 0
  %37 = zext i1 %36 to i32
  %38 = call i32 @test_true(ptr noundef @.str, i32 noundef 160, ptr noundef @.str.82, i32 noundef %37)
  %39 = icmp ne i32 %38, 0
  br i1 %39, label %40, label %150

40:                                               ; preds = %31
  %41 = load ptr, ptr @bio_out, align 8, !tbaa !37
  %42 = load ptr, ptr %4, align 8, !tbaa !17
  %43 = call ptr @EVP_aes_256_cbc()
  %44 = call i32 @PEM_write_bio_PKCS8PrivateKey(ptr noundef %41, ptr noundef %42, ptr noundef %43, ptr noundef null, i32 noundef 0, ptr noundef @pass_cb, ptr noundef null)
  %45 = icmp ne i32 %44, 0
  %46 = zext i1 %45 to i32
  %47 = call i32 @test_true(ptr noundef @.str, i32 noundef 163, ptr noundef @.str.83, i32 noundef %46)
  %48 = icmp ne i32 %47, 0
  br i1 %48, label %49, label %150

49:                                               ; preds = %40
  %50 = load ptr, ptr @bio_out, align 8, !tbaa !37
  %51 = load ptr, ptr %4, align 8, !tbaa !17
  %52 = call ptr @EVP_aes_256_cbc()
  %53 = call i32 @PEM_write_bio_PKCS8PrivateKey(ptr noundef %50, ptr noundef %51, ptr noundef %52, ptr noundef null, i32 noundef 0, ptr noundef @pass_cb_error, ptr noundef null)
  %54 = icmp ne i32 %53, 0
  %55 = zext i1 %54 to i32
  %56 = call i32 @test_false(ptr noundef @.str, i32 noundef 167, ptr noundef @.str.84, i32 noundef %55)
  %57 = icmp ne i32 %56, 0
  br i1 %57, label %58, label %150

58:                                               ; preds = %49
  %59 = load ptr, ptr @bio_out, align 8, !tbaa !37
  %60 = load ptr, ptr %4, align 8, !tbaa !17
  %61 = call i32 @PEM_write_bio_PKCS8PrivateKey_nid(ptr noundef %59, ptr noundef %60, i32 noundef 146, ptr noundef inttoptr (i64 -1 to ptr), i32 noundef 0, ptr noundef null, ptr noundef null)
  %62 = icmp ne i32 %61, 0
  %63 = zext i1 %62 to i32
  %64 = call i32 @test_true(ptr noundef @.str, i32 noundef 171, ptr noundef @.str.85, i32 noundef %63)
  %65 = icmp ne i32 %64, 0
  br i1 %65, label %66, label %150

66:                                               ; preds = %58
  %67 = load ptr, ptr @bio_out, align 8, !tbaa !37
  %68 = load ptr, ptr %4, align 8, !tbaa !17
  %69 = call i32 @PEM_write_bio_PKCS8PrivateKey_nid(ptr noundef %67, ptr noundef %68, i32 noundef 146, ptr noundef null, i32 noundef 0, ptr noundef null, ptr noundef @.str.50)
  %70 = icmp ne i32 %69, 0
  %71 = zext i1 %70 to i32
  %72 = call i32 @test_true(ptr noundef @.str, i32 noundef 174, ptr noundef @.str.86, i32 noundef %71)
  %73 = icmp ne i32 %72, 0
  br i1 %73, label %74, label %150

74:                                               ; preds = %66
  %75 = load ptr, ptr @bio_out, align 8, !tbaa !37
  %76 = load ptr, ptr %4, align 8, !tbaa !17
  %77 = call i32 @PEM_write_bio_PKCS8PrivateKey_nid(ptr noundef %75, ptr noundef %76, i32 noundef 146, ptr noundef null, i32 noundef 0, ptr noundef @pass_cb, ptr noundef null)
  %78 = icmp ne i32 %77, 0
  %79 = zext i1 %78 to i32
  %80 = call i32 @test_true(ptr noundef @.str, i32 noundef 177, ptr noundef @.str.87, i32 noundef %79)
  %81 = icmp ne i32 %80, 0
  br i1 %81, label %82, label %150

82:                                               ; preds = %74
  %83 = load ptr, ptr @bio_out, align 8, !tbaa !37
  %84 = load ptr, ptr %4, align 8, !tbaa !17
  %85 = call i32 @PEM_write_bio_PKCS8PrivateKey_nid(ptr noundef %83, ptr noundef %84, i32 noundef 146, ptr noundef null, i32 noundef 0, ptr noundef @pass_cb_error, ptr noundef null)
  %86 = icmp ne i32 %85, 0
  %87 = zext i1 %86 to i32
  %88 = call i32 @test_false(ptr noundef @.str, i32 noundef 180, ptr noundef @.str.88, i32 noundef %87)
  %89 = icmp ne i32 %88, 0
  br i1 %89, label %90, label %150

90:                                               ; preds = %82
  %91 = load ptr, ptr %5, align 8, !tbaa !37
  %92 = load ptr, ptr %4, align 8, !tbaa !17
  %93 = call i32 @EVP_PKEY_print_private(ptr noundef %91, ptr noundef %92, i32 noundef 0, ptr noundef null)
  %94 = call i32 @test_int_gt(ptr noundef @.str, i32 noundef 183, ptr noundef @.str.89, ptr noundef @.str.66, i32 noundef %93, i32 noundef 0)
  %95 = icmp ne i32 %94, 0
  br i1 %95, label %96, label %150

96:                                               ; preds = %90
  %97 = load ptr, ptr %3, align 8, !tbaa !4
  %98 = load ptr, ptr %5, align 8, !tbaa !37
  %99 = call i32 @compare_with_file(ptr noundef %97, i32 noundef 0, ptr noundef %98)
  %100 = icmp ne i32 %99, 0
  %101 = zext i1 %100 to i32
  %102 = call i32 @test_true(ptr noundef @.str, i32 noundef 184, ptr noundef @.str.90, i32 noundef %101)
  %103 = icmp ne i32 %102, 0
  br i1 %103, label %104, label %150

104:                                              ; preds = %96
  %105 = load ptr, ptr %5, align 8, !tbaa !37
  %106 = load ptr, ptr %4, align 8, !tbaa !17
  %107 = call i32 @PEM_write_bio_PUBKEY(ptr noundef %105, ptr noundef %106)
  %108 = icmp ne i32 %107, 0
  %109 = zext i1 %108 to i32
  %110 = call i32 @test_true(ptr noundef @.str, i32 noundef 186, ptr noundef @.str.91, i32 noundef %109)
  %111 = icmp ne i32 %110, 0
  br i1 %111, label %112, label %150

112:                                              ; preds = %104
  %113 = load ptr, ptr %3, align 8, !tbaa !4
  %114 = load ptr, ptr %5, align 8, !tbaa !37
  %115 = call i32 @compare_with_file(ptr noundef %113, i32 noundef 4, ptr noundef %114)
  %116 = icmp ne i32 %115, 0
  %117 = zext i1 %116 to i32
  %118 = call i32 @test_true(ptr noundef @.str, i32 noundef 187, ptr noundef @.str.92, i32 noundef %117)
  %119 = icmp ne i32 %118, 0
  br i1 %119, label %120, label %150

120:                                              ; preds = %112
  %121 = load ptr, ptr %5, align 8, !tbaa !37
  %122 = load ptr, ptr %4, align 8, !tbaa !17
  %123 = call i32 @PEM_write_bio_PrivateKey(ptr noundef %121, ptr noundef %122, ptr noundef null, ptr noundef null, i32 noundef 0, ptr noundef null, ptr noundef null)
  %124 = icmp ne i32 %123, 0
  %125 = zext i1 %124 to i32
  %126 = call i32 @test_true(ptr noundef @.str, i32 noundef 190, ptr noundef @.str.93, i32 noundef %125)
  %127 = icmp ne i32 %126, 0
  br i1 %127, label %128, label %150

128:                                              ; preds = %120
  %129 = load ptr, ptr %3, align 8, !tbaa !4
  %130 = load ptr, ptr %5, align 8, !tbaa !37
  %131 = call i32 @compare_with_file(ptr noundef %129, i32 noundef 1, ptr noundef %130)
  %132 = icmp ne i32 %131, 0
  %133 = zext i1 %132 to i32
  %134 = call i32 @test_true(ptr noundef @.str, i32 noundef 191, ptr noundef @.str.94, i32 noundef %133)
  %135 = icmp ne i32 %134, 0
  br i1 %135, label %136, label %150

136:                                              ; preds = %128
  %137 = load ptr, ptr %5, align 8, !tbaa !37
  %138 = call i32 @PEM_write_bio_PrivateKey(ptr noundef %137, ptr noundef null, ptr noundef null, ptr noundef null, i32 noundef 0, ptr noundef null, ptr noundef null)
  %139 = icmp ne i32 %138, 0
  %140 = zext i1 %139 to i32
  %141 = call i32 @test_false(ptr noundef @.str, i32 noundef 194, ptr noundef @.str.95, i32 noundef %140)
  %142 = icmp ne i32 %141, 0
  br i1 %142, label %143, label %150

143:                                              ; preds = %136
  %144 = load ptr, ptr %5, align 8, !tbaa !37
  %145 = call i32 @PEM_write_bio_PrivateKey_traditional(ptr noundef %144, ptr noundef null, ptr noundef null, ptr noundef null, i32 noundef 0, ptr noundef null, ptr noundef null)
  %146 = icmp ne i32 %145, 0
  %147 = zext i1 %146 to i32
  %148 = call i32 @test_false(ptr noundef @.str, i32 noundef 196, ptr noundef @.str.96, i32 noundef %147)
  %149 = icmp ne i32 %148, 0
  br i1 %149, label %151, label %150

150:                                              ; preds = %143, %136, %128, %120, %112, %104, %96, %90, %82, %74, %66, %58, %49, %40, %31, %22, %13
  br label %152

151:                                              ; preds = %143
  store i32 1, ptr %6, align 4, !tbaa !9
  br label %152

152:                                              ; preds = %151, %150, %12
  %153 = load ptr, ptr %5, align 8, !tbaa !37
  %154 = call i32 @BIO_free(ptr noundef %153)
  %155 = load i32, ptr %6, align 4, !tbaa !9
  call void @llvm.lifetime.end.p0(i64 4, ptr %6) #6
  call void @llvm.lifetime.end.p0(i64 8, ptr %5) #6
  ret i32 %155
}