; Function Attrs: nounwind uwtable
define internal fastcc range(i32 0, 2) i32 @test_print_key_using_pem(ptr noundef %0, ptr noundef %1) unnamed_addr #0 {
  %3 = tail call ptr @BIO_s_mem() #6
  %4 = tail call ptr @BIO_new(ptr noundef %3) #6
  %5 = tail call i32 @test_ptr(ptr noundef nonnull @.str, i32 noundef 146, ptr noundef nonnull @.str.78, ptr noundef %4) #6
  %.not = icmp eq i32 %5, 0
  br i1 %.not, label %97, label %6

6:                                                ; preds = %2
  %7 = load ptr, ptr @bio_out, align 8, !tbaa !31
  %8 = tail call ptr @EVP_aes_256_cbc() #6
  %9 = tail call i32 @PEM_write_bio_PrivateKey(ptr noundef %7, ptr noundef %1, ptr noundef %8, ptr noundef nonnull @.str.80, i32 noundef 4, ptr noundef null, ptr noundef null) #6
  %10 = icmp ne i32 %9, 0
  %11 = zext i1 %10 to i32
  %12 = tail call i32 @test_true(ptr noundef nonnull @.str, i32 noundef 152, ptr noundef nonnull @.str.79, i32 noundef %11) #6
  %.not25 = icmp eq i32 %12, 0
  br i1 %.not25, label %97, label %13

13:                                               ; preds = %6
  %14 = load ptr, ptr @bio_out, align 8, !tbaa !31
  %15 = tail call ptr @EVP_aes_256_cbc() #6
  %16 = tail call i32 @PEM_write_bio_PKCS8PrivateKey(ptr noundef %14, ptr noundef %1, ptr noundef %15, ptr noundef nonnull inttoptr (i64 -1 to ptr), i32 noundef 0, ptr noundef null, ptr noundef null) #6
  %17 = icmp ne i32 %16, 0
  %18 = zext i1 %17 to i32
  %19 = tail call i32 @test_true(ptr noundef nonnull @.str, i32 noundef 157, ptr noundef nonnull @.str.81, i32 noundef %18) #6
  %.not26 = icmp eq i32 %19, 0
  br i1 %.not26, label %97, label %20

20:                                               ; preds = %13
  %21 = load ptr, ptr @bio_out, align 8, !tbaa !31
  %22 = tail call ptr @EVP_aes_256_cbc() #6
  %23 = tail call i32 @PEM_write_bio_PKCS8PrivateKey(ptr noundef %21, ptr noundef %1, ptr noundef %22, ptr noundef null, i32 noundef 0, ptr noundef null, ptr noundef nonnull @.str.50) #6
  %24 = icmp ne i32 %23, 0
  %25 = zext i1 %24 to i32
  %26 = tail call i32 @test_true(ptr noundef nonnull @.str, i32 noundef 160, ptr noundef nonnull @.str.82, i32 noundef %25) #6
  %.not27 = icmp eq i32 %26, 0
  br i1 %.not27, label %97, label %27

27:                                               ; preds = %20
  %28 = load ptr, ptr @bio_out, align 8, !tbaa !31
  %29 = tail call ptr @EVP_aes_256_cbc() #6
  %30 = tail call i32 @PEM_write_bio_PKCS8PrivateKey(ptr noundef %28, ptr noundef %1, ptr noundef %29, ptr noundef null, i32 noundef 0, ptr noundef nonnull @pass_cb, ptr noundef null) #6
  %31 = icmp ne i32 %30, 0
  %32 = zext i1 %31 to i32
  %33 = tail call i32 @test_true(ptr noundef nonnull @.str, i32 noundef 163, ptr noundef nonnull @.str.83, i32 noundef %32) #6
  %.not28 = icmp eq i32 %33, 0
  br i1 %.not28, label %97, label %34

34:                                               ; preds = %27
  %35 = load ptr, ptr @bio_out, align 8, !tbaa !31
  %36 = tail call ptr @EVP_aes_256_cbc() #6
  %37 = tail call i32 @PEM_write_bio_PKCS8PrivateKey(ptr noundef %35, ptr noundef %1, ptr noundef %36, ptr noundef null, i32 noundef 0, ptr noundef nonnull @pass_cb_error, ptr noundef null) #6
  %38 = icmp ne i32 %37, 0
  %39 = zext i1 %38 to i32
  %40 = tail call i32 @test_false(ptr noundef nonnull @.str, i32 noundef 167, ptr noundef nonnull @.str.84, i32 noundef %39) #6
  %.not29 = icmp eq i32 %40, 0
  br i1 %.not29, label %97, label %41

41:                                               ; preds = %34
  %42 = load ptr, ptr @bio_out, align 8, !tbaa !31
  %43 = tail call i32 @PEM_write_bio_PKCS8PrivateKey_nid(ptr noundef %42, ptr noundef %1, i32 noundef 146, ptr noundef nonnull inttoptr (i64 -1 to ptr), i32 noundef 0, ptr noundef null, ptr noundef null) #6
  %44 = icmp ne i32 %43, 0
  %45 = zext i1 %44 to i32
  %46 = tail call i32 @test_true(ptr noundef nonnull @.str, i32 noundef 171, ptr noundef nonnull @.str.85, i32 noundef %45) #6
  %.not30 = icmp eq i32 %46, 0
  br i1 %.not30, label %97, label %47

47:                                               ; preds = %41
  %48 = load ptr, ptr @bio_out, align 8, !tbaa !31
  %49 = tail call i32 @PEM_write_bio_PKCS8PrivateKey_nid(ptr noundef %48, ptr noundef %1, i32 noundef 146, ptr noundef null, i32 noundef 0, ptr noundef null, ptr noundef nonnull @.str.50) #6
  %50 = icmp ne i32 %49, 0
  %51 = zext i1 %50 to i32
  %52 = tail call i32 @test_true(ptr noundef nonnull @.str, i32 noundef 174, ptr noundef nonnull @.str.86, i32 noundef %51) #6
  %.not31 = icmp eq i32 %52, 0
  br i1 %.not31, label %97, label %53

53:                                               ; preds = %47
  %54 = load ptr, ptr @bio_out, align 8, !tbaa !31
  %55 = tail call i32 @PEM_write_bio_PKCS8PrivateKey_nid(ptr noundef %54, ptr noundef %1, i32 noundef 146, ptr noundef null, i32 noundef 0, ptr noundef nonnull @pass_cb, ptr noundef null) #6
  %56 = icmp ne i32 %55, 0
  %57 = zext i1 %56 to i32
  %58 = tail call i32 @test_true(ptr noundef nonnull @.str, i32 noundef 177, ptr noundef nonnull @.str.87, i32 noundef %57) #6
  %.not32 = icmp eq i32 %58, 0
  br i1 %.not32, label %97, label %59

59:                                               ; preds = %53
  %60 = load ptr, ptr @bio_out, align 8, !tbaa !31
  %61 = tail call i32 @PEM_write_bio_PKCS8PrivateKey_nid(ptr noundef %60, ptr noundef %1, i32 noundef 146, ptr noundef null, i32 noundef 0, ptr noundef nonnull @pass_cb_error, ptr noundef null) #6
  %62 = icmp ne i32 %61, 0
  %63 = zext i1 %62 to i32
  %64 = tail call i32 @test_false(ptr noundef nonnull @.str, i32 noundef 180, ptr noundef nonnull @.str.88, i32 noundef %63) #6
  %.not33 = icmp eq i32 %64, 0
  br i1 %.not33, label %97, label %65

65:                                               ; preds = %59
  %66 = tail call i32 @EVP_PKEY_print_private(ptr noundef %4, ptr noundef %1, i32 noundef 0, ptr noundef null) #6
  %67 = tail call i32 @test_int_gt(ptr noundef nonnull @.str, i32 noundef 183, ptr noundef nonnull @.str.89, ptr noundef nonnull @.str.66, i32 noundef %66, i32 noundef 0) #6
  %.not34 = icmp eq i32 %67, 0
  br i1 %.not34, label %97, label %68

68:                                               ; preds = %65
  %69 = tail call fastcc i32 @compare_with_file(ptr noundef %0, i32 noundef 0, ptr noundef %4)
  %70 = tail call i32 @test_true(ptr noundef nonnull @.str, i32 noundef 184, ptr noundef nonnull @.str.90, i32 noundef %69) #6
  %.not35 = icmp eq i32 %70, 0
  br i1 %.not35, label %97, label %71

71:                                               ; preds = %68
  %72 = tail call i32 @PEM_write_bio_PUBKEY(ptr noundef %4, ptr noundef %1) #6
  %73 = icmp ne i32 %72, 0
  %74 = zext i1 %73 to i32
  %75 = tail call i32 @test_true(ptr noundef nonnull @.str, i32 noundef 186, ptr noundef nonnull @.str.91, i32 noundef %74) #6
  %.not36 = icmp eq i32 %75, 0
  br i1 %.not36, label %97, label %76

76:                                               ; preds = %71
  %77 = tail call fastcc i32 @compare_with_file(ptr noundef %0, i32 noundef 4, ptr noundef %4)
  %78 = tail call i32 @test_true(ptr noundef nonnull @.str, i32 noundef 187, ptr noundef nonnull @.str.92, i32 noundef %77) #6
  %.not37 = icmp eq i32 %78, 0
  br i1 %.not37, label %97, label %79

79:                                               ; preds = %76
  %80 = tail call i32 @PEM_write_bio_PrivateKey(ptr noundef %4, ptr noundef %1, ptr noundef null, ptr noundef null, i32 noundef 0, ptr noundef null, ptr noundef null) #6
  %81 = icmp ne i32 %80, 0
  %82 = zext i1 %81 to i32
  %83 = tail call i32 @test_true(ptr noundef nonnull @.str, i32 noundef 190, ptr noundef nonnull @.str.93, i32 noundef %82) #6
  %.not38 = icmp eq i32 %83, 0
  br i1 %.not38, label %97, label %84

84:                                               ; preds = %79
  %85 = tail call fastcc i32 @compare_with_file(ptr noundef %0, i32 noundef 1, ptr noundef %4)
  %86 = tail call i32 @test_true(ptr noundef nonnull @.str, i32 noundef 191, ptr noundef nonnull @.str.94, i32 noundef %85) #6
  %.not39 = icmp eq i32 %86, 0
  br i1 %.not39, label %97, label %87

87:                                               ; preds = %84
  %88 = tail call i32 @PEM_write_bio_PrivateKey(ptr noundef %4, ptr noundef null, ptr noundef null, ptr noundef null, i32 noundef 0, ptr noundef null, ptr noundef null) #6
  %89 = icmp ne i32 %88, 0
  %90 = zext i1 %89 to i32
  %91 = tail call i32 @test_false(ptr noundef nonnull @.str, i32 noundef 194, ptr noundef nonnull @.str.95, i32 noundef %90) #6
  %.not40 = icmp eq i32 %91, 0
  br i1 %.not40, label %97, label %92

92:                                               ; preds = %87
  %93 = tail call i32 @PEM_write_bio_PrivateKey_traditional(ptr noundef %4, ptr noundef null, ptr noundef null, ptr noundef null, i32 noundef 0, ptr noundef null, ptr noundef null) #6
  %94 = icmp ne i32 %93, 0
  %95 = zext i1 %94 to i32
  %96 = tail call i32 @test_false(ptr noundef nonnull @.str, i32 noundef 196, ptr noundef nonnull @.str.96, i32 noundef %95) #6
  %.not41 = icmp ne i32 %96, 0
  %spec.select = zext i1 %.not41 to i32
  br label %97

97:                                               ; preds = %92, %6, %13, %20, %27, %34, %41, %47, %53, %59, %65, %68, %71, %76, %79, %84, %87, %2
  %.0 = phi i32 [ 0, %87 ], [ 0, %84 ], [ 0, %79 ], [ 0, %76 ], [ 0, %71 ], [ 0, %68 ], [ 0, %65 ], [ 0, %59 ], [ 0, %53 ], [ 0, %47 ], [ 0, %41 ], [ 0, %34 ], [ 0, %27 ], [ 0, %20 ], [ 0, %13 ], [ 0, %6 ], [ 0, %2 ], [ %spec.select, %92 ]
  %98 = tail call i32 @BIO_free(ptr noundef %4) #6
  ret i32 %.0
}